Certificate:
    Data:
        Version: 3 (0x2)
        Serial Number: 1 (0x1)
    Signature Algorithm: sha256WithRSAEncryption
        Issuer: C=HR, ST=Slavonija, L=Osijek, O=bbijelic.github.com, OU=dev, CN=localhost
        Validity
            Not Before: Dec  8 20:01:09 2016 GMT
            Not After : Jan 16 20:01:09 2022 GMT
        Subject: C=HR, ST=Slavonija, O=bbijelic.github.com, OU=dev, CN=localhost
        Subject Public Key Info:
            Public Key Algorithm: rsaEncryption
                Public-Key: (2048 bit)
                Modulus:
                    00:cf:e1:0a:b8:d1:b9:70:f3:4f:a2:59:6f:2d:fa:
                    4f:c6:d9:e1:3c:00:99:c4:d1:17:04:cd:f8:81:11:
                    69:7f:99:68:2e:40:cf:79:34:46:e5:b5:f4:aa:71:
                    6a:8a:6f:24:b2:52:ab:0e:2d:3d:3b:d7:63:b1:16:
                    3e:bf:67:15:95:88:c9:04:b0:16:a5:74:fe:3c:73:
                    be:71:53:cf:7d:30:b0:eb:ba:b8:cf:53:69:e6:01:
                    37:3b:d5:d3:35:01:7e:56:a2:39:09:76:4d:93:e6:
                    d7:5c:08:c8:41:0d:f3:9d:90:68:d4:b0:1d:a0:c9:
                    8c:40:29:de:bc:6e:1b:47:52:f7:86:84:4a:ed:00:
                    48:34:81:51:6a:3f:15:67:41:b8:c0:0d:02:28:4d:
                    a9:c2:1d:44:97:50:34:f0:61:4d:c7:1c:01:4d:fc:
                    83:a9:cd:25:1b:cf:db:1f:ff:1f:9c:7b:9a:df:24:
                    38:98:8f:38:96:40:9c:bc:30:f6:90:60:72:94:6a:
                    b4:8d:cf:9a:6b:12:ef:48:eb:5b:fd:96:40:8b:68:
                    2f:b4:4f:eb:e6:b4:04:3c:5d:5e:e5:24:38:f9:35:
                    2d:d6:e0:7e:9f:36:83:74:d4:b5:04:88:14:a7:c7:
                    50:f7:43:21:90:9f:32:97:80:e5:41:81:4c:03:65:
                    4a:69
                Exponent: 65537 (0x10001)
        X509v3 extensions:
            X509v3 Basic Constraints: 
                CA:FALSE
            Netscape Comment: 
                OpenSSL Generated Certificate
            X509v3 Subject Key Identifier: 
                CD:6D:40:16:6C:E2:AB:5C:DD:B3:AD:7C:29:AE:68:DD:E2:3A:41:FB
            X509v3 Authority Key Identifier: 
                DirName:/C=HR/ST=Slavonija/L=Osijek/O=bbijelic.github.com/OU=dev/CN=localhost
                serial:EA:2B:19:A6:FD:14:72:64

    Signature Algorithm: sha256WithRSAEncryption
         56:d7:a5:c6:ab:82:24:8e:45:a5:23:07:67:88:16:6e:6f:a8:
         80:fb:20:12:72:66:42:e6:db:e9:03:44:8b:eb:c7:20:56:53:
         5d:de:5c:93:2f:eb:9c:35:62:7e:dd:81:e8:3b:65:ad:2d:eb:
         4f:a7:8c:7b:86:fe:d2:0f:6f:3a:c4:32:12:35:7b:3c:c0:ce:
         6e:d1:21:65:24:92:57:05:da:1a:66:3f:f9:1d:46:82:36:f0:
         3e:2d:41:27:da:65:2d:92:6c:71:ce:9f:a9:92:4e:3c:5f:f6:
         c7:58:2b:36:d9:43:9e:54:e3:bc:2a:56:a8:8d:47:dd:79:0f:
         84:ef:42:ea:89:c7:3d:f3:0d:7d:20:59:df:b8:75:7a:9d:20:
         ca:c2:c9:71:40:a6:cd:70:c3:8c:7f:26:81:fa:a5:fe:e2:4d:
         0a:c4:45:cc:f8:f2:90:c0:6c:27:23:52:18:0c:4b:d4:ea:d9:
         6b:68:99:dc:98:34:ca:11:12:7d:66:c3:26:92:45:3e:0e:ed:
         97:76:69:b8:ae:01:cc:e4:1b:a9:d4:34:4c:80:cb:0d:2c:2d:
         78:da:12:f5:fa:0f:69:ef:58:f4:95:24:3b:31:d0:4a:e4:1a:
         26:ab:18:e3:73:06:75:df:03:53:9c:f3:27:51:03:35:b2:8e:
         42:16:cf:8a
-----BEGIN CERTIFICATE-----
MIIEOzCCAyOgAwIBAgIBATANBgkqhkiG9w0BAQsFADByMQswCQYDVQQGEwJIUjES
MBAGA1UECAwJU2xhdm9uaWphMQ8wDQYDVQQHDAZPc2lqZWsxHDAaBgNVBAoME2Ji
aWplbGljLmdpdGh1Yi5jb20xDDAKBgNVBAsMA2RldjESMBAGA1UEAwwJbG9jYWxo
b3N0MB4XDTE2MTIwODIwMDEwOVoXDTIyMDExNjIwMDEwOVowYTELMAkGA1UEBhMC
SFIxEjAQBgNVBAgMCVNsYXZvbmlqYTEcMBoGA1UECgwTYmJpamVsaWMuZ2l0aHVi
LmNvbTEMMAoGA1UECwwDZGV2MRIwEAYDVQQDDAlsb2NhbGhvc3QwggEiMA0GCSqG
SIb3DQEBAQUAA4IBDwAwggEKAoIBAQDP4Qq40blw80+iWW8t+k/G2eE8AJnE0RcE
zfiBEWl/mWguQM95NEbltfSqcWqKbySyUqsOLT0712OxFj6/ZxWViMkEsBaldP48
c75xU899MLDrurjPU2nmATc71dM1AX5WojkJdk2T5tdcCMhBDfOdkGjUsB2gyYxA
Kd68bhtHUveGhErtAEg0gVFqPxVnQbjADQIoTanCHUSXUDTwYU3HHAFN/IOpzSUb
z9sf/x+ce5rfJDiYjziWQJy8MPaQYHKUarSNz5prEu9I61v9lkCLaC+0T+vmtAQ8
XV7lJDj5NS3W4H6fNoN01LUEiBSnx1D3QyGQnzKXgOVBgUwDZUppAgMBAAGjgeww
gekwCQYDVR0TBAIwADAsBglghkgBhvhCAQ0EHxYdT3BlblNTTCBHZW5lcmF0ZWQg
Q2VydGlmaWNhdGUwHQYDVR0OBBYEFM1tQBZs4qtc3bOtfCmuaN3iOkH7MIGOBgNV
HSMEgYYwgYOhdqR0MHIxCzAJBgNVBAYTAkhSMRIwEAYDVQQIDAlTbGF2b25pamEx
DzANBgNVBAcMBk9zaWplazEcMBoGA1UECgwTYmJpamVsaWMuZ2l0aHViLmNvbTEM
MAoGA1UECwwDZGV2MRIwEAYDVQQDDAlsb2NhbGhvc3SCCQDqKxmm/RRyZDANBgkq
hkiG9w0BAQsFAAOCAQEAVtelxquCJI5FpSMHZ4gWbm+ogPsgEnJmQubb6QNEi+vH
IFZTXd5cky/rnDVift2B6DtlrS3rT6eMe4b+0g9vOsQyEjV7PMDObtEhZSSSVwXa
GmY/+R1GgjbwPi1BJ9plLZJscc6fqZJOPF/2x1grNtlDnlTjvCpWqI1H3XkPhO9C
6onHPfMNfSBZ37h1ep0gysLJcUCmzXDDjH8mgfql/uJNCsRFzPjykMBsJyNSGAxL
1OrZa2iZ3Jg0yhESfWbDJpJFPg7tl3ZpuK4BzOQbqdQ0TIDLDSwteNoS9foPae9Y
9JUkOzHQSuQaJqsY43MGdd8DU5zzJ1EDNbKOQhbPig==
-----END CERTIFICATE-----
